target datalayout = "e-m:e-p270:32:32-p271:32:32-p272:64:64-i64:64-i128:128-f80:128-n8:16:32:64-S128"
target triple = "x86_64-pc-linux-gnu"

%struct.AVVorbisParseContext = type { ptr, i32, i32, [2 x i32], i32, [64 x i32], i32, i32, i32 }

; Function Attrs: nounwind uwtable
define void @av_vorbis_parse_reset(ptr noundef %0) #0 {
  %2 = alloca ptr, align 8
  store ptr %0, ptr %2, align 8, !tbaa !4
  %3 = load ptr, ptr %2, align 8, !tbaa !4
  %4 = getelementptr inbounds nuw %struct.AVVorbisParseContext, ptr %3, i32 0, i32 2
  %5 = load i32, ptr %4, align 4, !tbaa !15
  %6 = icmp ne i32 %5, 0
  br i1 %6, label %7, label %14

7:                                                ; preds = %1
  %8 = load ptr, ptr %2, align 8, !tbaa !4
  %9 = getelementptr inbounds nuw %struct.AVVorbisParseContext, ptr %8, i32 0, i32 3
  %10 = getelementptr inbounds [2 x i32], ptr %9, i64 0, i64 0
  %11 = load i32, ptr %10, align 8, !tbaa !11
  %12 = load ptr, ptr %2, align 8, !tbaa !4
  %13 = getelementptr inbounds nuw %struct.AVVorbisParseContext, ptr %12, i32 0, i32 4
  store i32 %11, ptr %13, align 8, !tbaa !18
  br label %14

14:                                               ; preds = %7, %1
  ret void
}